target datalayout = "e-m:e-p270:32:32-p271:32:32-p272:64:64-i64:64-i128:128-f80:128-n8:16:32:64-S128"
target triple = "x86_64-unknown-linux-gnu"

%"class.rocksdb::Slice" = type { ptr, i64 }
%struct.__toku_dbt = type { ptr, i64, i64, i32 }

; Function Attrs: mustprogress nounwind uwtable
define linkonce_odr void @_ZN7rocksdb5SliceC2EPKcm(ptr noundef nonnull align 8 dereferenceable(16) %this, ptr noundef %d, i64 noundef %n) unnamed_addr #1 comdat align 2 {
entry:
  %this.addr = alloca ptr, align 8
  %d.addr = alloca ptr, align 8
  %n.addr = alloca i64, align 8
  store ptr %this, ptr %this.addr, align 8
  store ptr %d, ptr %d.addr, align 8
  store i64 %n, ptr %n.addr, align 8
  %this1 = load ptr, ptr %this.addr, align 8
  %data_ = getelementptr inbounds %"class.rocksdb::Slice", ptr %this1, i32 0, i32 0
  %0 = load ptr, ptr %d.addr, align 8
  store ptr %0, ptr %data_, align 8
  %size_ = getelementptr inbounds %"class.rocksdb::Slice", ptr %this1, i32 0, i32 1
  %1 = load i64, ptr %n.addr, align 8
  store i64 %1, ptr %size_, align 8
  ret void
}

; Function Attrs: mustprogress nounwind uwtable
define linkonce_odr noundef nonnull align 8 dereferenceable(8) ptr @_ZSt3minImERKT_S2_S2_(ptr noundef nonnull align 8 dereferenceable(8) %__a, ptr noundef nonnull align 8 dereferenceable(8) %__b) #1 comdat {
entry:
  %retval = alloca ptr, align 8
  %__a.addr = alloca ptr, align 8
  %__b.addr = alloca ptr, align 8
  store ptr %__a, ptr %__a.addr, align 8
  store ptr %__b, ptr %__b.addr, align 8
  %0 = load ptr, ptr %__b.addr, align 8
  %1 = load i64, ptr %0, align 8
  %2 = load ptr, ptr %__a.addr, align 8
  %3 = load i64, ptr %2, align 8
  %cmp = icmp ult i64 %1, %3
  br i1 %cmp, label %if.then, label %if.end

if.then:                                          ; preds = %entry
  %4 = load ptr, ptr %__b.addr, align 8
  store ptr %4, ptr %retval, align 8
  br label %return

if.end:                                           ; preds = %entry
  %5 = load ptr, ptr %__a.addr, align 8
  store ptr %5, ptr %retval, align 8
  br label %return

return:                                           ; preds = %if.end, %if.then
  %6 = load ptr, ptr %retval, align 8
  ret ptr %6
}

; Function Attrs: mustprogress uwtable
define noundef i32 @_ZN7rocksdb20RangeTreeLockManager19CompareDbtEndpointsEPvPK10__toku_dbtS4_(ptr noundef %arg, ptr noundef %a_key, ptr noundef %b_key) #0 align 2 {
entry:
  %retval = alloca i32, align 4
  %arg.addr = alloca ptr, align 8
  %a_key.addr = alloca ptr, align 8
  %b_key.addr = alloca ptr, align 8
  %a = alloca ptr, align 8
  %b = alloca ptr, align 8
  %a_len = alloca i64, align 8
  %b_len = alloca i64, align 8
  %min_len = alloca i64, align 8
  %cmp = alloca ptr, align 8
  %res = alloca i32, align 4
  %ref.tmp = alloca %"class.rocksdb::Slice", align 8
  %ref.tmp4 = alloca %"class.rocksdb::Slice", align 8
  store ptr %arg, ptr %arg.addr, align 8
  store ptr %a_key, ptr %a_key.addr, align 8
  store ptr %b_key, ptr %b_key.addr, align 8
  %0 = load ptr, ptr %a_key.addr, align 8
  %data = getelementptr inbounds %struct.__toku_dbt, ptr %0, i32 0, i32 0
  %1 = load ptr, ptr %data, align 8
  store ptr %1, ptr %a, align 8
  %2 = load ptr, ptr %b_key.addr, align 8
  %data1 = getelementptr inbounds %struct.__toku_dbt, ptr %2, i32 0, i32 0
  %3 = load ptr, ptr %data1, align 8
  store ptr %3, ptr %b, align 8
  %4 = load ptr, ptr %a_key.addr, align 8
  %size = getelementptr inbounds %struct.__toku_dbt, ptr %4, i32 0, i32 1
  %5 = load i64, ptr %size, align 8
  store i64 %5, ptr %a_len, align 8
  %6 = load ptr, ptr %b_key.addr, align 8
  %size2 = getelementptr inbounds %struct.__toku_dbt, ptr %6, i32 0, i32 1
  %7 = load i64, ptr %size2, align 8
  store i64 %7, ptr %b_len, align 8
  %call = call noundef nonnull align 8 dereferenceable(8) ptr @_ZSt3minImERKT_S2_S2_(ptr noundef nonnull align 8 dereferenceable(8) %a_len, ptr noundef nonnull align 8 dereferenceable(8) %b_len)
  %8 = load i64, ptr %call, align 8
  store i64 %8, ptr %min_len, align 8
  %9 = load ptr, ptr %arg.addr, align 8
  store ptr %9, ptr %cmp, align 8
  %10 = load ptr, ptr %cmp, align 8
  %add.ptr = getelementptr inbounds i8, ptr %10, i64 32
  %11 = load ptr, ptr %a, align 8
  %add.ptr3 = getelementptr inbounds i8, ptr %11, i64 1
  %12 = load i64, ptr %min_len, align 8
  %sub = sub i64 %12, 1
  call void @_ZN7rocksdb5SliceC2EPKcm(ptr noundef nonnull align 8 dereferenceable(16) %ref.tmp, ptr noundef %add.ptr3, i64 noundef %sub)
  %13 = load ptr, ptr %b, align 8
  %add.ptr5 = getelementptr inbounds i8, ptr %13, i64 1
  %14 = load i64, ptr %min_len, align 8
  %sub6 = sub i64 %14, 1
  call void @_ZN7rocksdb5SliceC2EPKcm(ptr noundef nonnull align 8 dereferenceable(16) %ref.tmp4, ptr noundef %add.ptr5, i64 noundef %sub6)
  %vtable = load ptr, ptr %add.ptr, align 8
  %vfn = getelementptr inbounds ptr, ptr %vtable, i64 2
  %15 = load ptr, ptr %vfn, align 8
  %call7 = call noundef i32 %15(ptr noundef nonnull align 8 dereferenceable(8) %add.ptr, ptr noundef nonnull align 8 dereferenceable(16) %ref.tmp, ptr noundef nonnull align 8 dereferenceable(16) %ref.tmp4)
  store i32 %call7, ptr %res, align 4
  %16 = load i32, ptr %res, align 4
  %tobool = icmp ne i32 %16, 0
  br i1 %tobool, label %if.else35, label %if.then

if.then:                                          ; preds = %entry
  %17 = load i64, ptr %b_len, align 8
  %18 = load i64, ptr %min_len, align 8
  %cmp8 = icmp ugt i64 %17, %18
  br i1 %cmp8, label %if.then9, label %if.else12

if.then9:                                         ; preds = %if.then
  %19 = load ptr, ptr %a, align 8
  %arrayidx = getelementptr inbounds i8, ptr %19, i64 0
  %20 = load i8, ptr %arrayidx, align 1
  %conv = sext i8 %20 to i32
  %cmp10 = icmp eq i32 %conv, 0
  br i1 %cmp10, label %if.then11, label %if.else

if.then11:                                        ; preds = %if.then9
  store i32 -1, ptr %retval, align 4
  br label %return

if.else:                                          ; preds = %if.then9
  store i32 1, ptr %retval, align 4
  br label %return

if.else12:                                        ; preds = %if.then
  %21 = load i64, ptr %a_len, align 8
  %22 = load i64, ptr %min_len, align 8
  %cmp13 = icmp ugt i64 %21, %22
  br i1 %cmp13, label %if.then14, label %if.else20

if.then14:                                        ; preds = %if.else12
  %23 = load ptr, ptr %b, align 8
  %arrayidx15 = getelementptr inbounds i8, ptr %23, i64 0
  %24 = load i8, ptr %arrayidx15, align 1
  %conv16 = sext i8 %24 to i32
  %cmp17 = icmp eq i32 %conv16, 0
  br i1 %cmp17, label %if.then18, label %if.else19

if.then18:                                        ; preds = %if.then14
  store i32 1, ptr %retval, align 4
  br label %return

if.else19:                                        ; preds = %if.then14
  store i32 -1, ptr %retval, align 4
  br label %return

if.else20:                                        ; preds = %if.else12
  %25 = load ptr, ptr %a, align 8
  %arrayidx21 = getelementptr inbounds i8, ptr %25, i64 0
  %26 = load i8, ptr %arrayidx21, align 1
  %conv22 = sext i8 %26 to i32
  %27 = load ptr, ptr %b, align 8
  %arrayidx23 = getelementptr inbounds i8, ptr %27, i64 0
  %28 = load i8, ptr %arrayidx23, align 1
  %conv24 = sext i8 %28 to i32
  %cmp25 = icmp slt i32 %conv22, %conv24
  br i1 %cmp25, label %if.then26, label %if.else27

if.then26:                                        ; preds = %if.else20
  store i32 -1, ptr %retval, align 4
  br label %return

if.else27:                                        ; preds = %if.else20
  %29 = load ptr, ptr %a, align 8
  %arrayidx28 = getelementptr inbounds i8, ptr %29, i64 0
  %30 = load i8, ptr %arrayidx28, align 1
  %conv29 = sext i8 %30 to i32
  %31 = load ptr, ptr %b, align 8
  %arrayidx30 = getelementptr inbounds i8, ptr %31, i64 0
  %32 = load i8, ptr %arrayidx30, align 1
  %conv31 = sext i8 %32 to i32
  %cmp32 = icmp sgt i32 %conv29, %conv31
  br i1 %cmp32, label %if.then33, label %if.else34

if.then33:                                        ; preds = %if.else27
  store i32 1, ptr %retval, align 4
  br label %return

if.else34:                                        ; preds = %if.else27
  store i32 0, ptr %retval, align 4
  br label %return

if.else35:                                        ; preds = %entry
  %33 = load i32, ptr %res, align 4
  store i32 %33, ptr %retval, align 4
  br label %return

return:                                           ; preds = %if.else35, %if.else34, %if.then33, %if.then26, %if.else19, %if.then18, %if.else, %if.then11
  %34 = load i32, ptr %retval, align 4
  ret i32 %34
}