; Function Attrs: mustprogress uwtable
define noundef i32 @_ZN7rocksdb20RangeTreeLockManager19CompareDbtEndpointsEPvPK10__toku_dbtS4_(ptr noundef %arg, ptr nocapture noundef readonly %a_key, ptr nocapture noundef readonly %b_key) #2 align 2 {
entry:
  %ref.tmp = alloca %"class.rocksdb::Slice", align 8
  %ref.tmp4 = alloca %"class.rocksdb::Slice", align 8
  %0 = load ptr, ptr %a_key, align 8
  %1 = load ptr, ptr %b_key, align 8
  %size = getelementptr inbounds i8, ptr %a_key, i64 8
  %2 = load i64, ptr %size, align 8
  %size2 = getelementptr inbounds i8, ptr %b_key, i64 8
  %3 = load i64, ptr %size2, align 8
  %cmp.i = icmp ult i64 %3, %2
  %.sroa.speculated = tail call i64 @llvm.umin.i64(i64 %3, i64 %2)
  %add.ptr = getelementptr inbounds i8, ptr %arg, i64 32
  %add.ptr3 = getelementptr inbounds i8, ptr %0, i64 1
  %sub = add i64 %.sroa.speculated, -1
  store ptr %add.ptr3, ptr %ref.tmp, align 8
  %size_.i = getelementptr inbounds i8, ptr %ref.tmp, i64 8
  store i64 %sub, ptr %size_.i, align 8
  %add.ptr5 = getelementptr inbounds i8, ptr %1, i64 1
  store ptr %add.ptr5, ptr %ref.tmp4, align 8
  %size_.i15 = getelementptr inbounds i8, ptr %ref.tmp4, i64 8
  store i64 %sub, ptr %size_.i15, align 8
  %vtable = load ptr, ptr %add.ptr, align 8
  %vfn = getelementptr inbounds i8, ptr %vtable, i64 16
  %4 = load ptr, ptr %vfn, align 8
  %call7 = call noundef i32 %4(ptr noundef nonnull align 8 dereferenceable(8) %add.ptr, ptr noundef nonnull align 8 dereferenceable(16) %ref.tmp, ptr noundef nonnull align 8 dereferenceable(16) %ref.tmp4)
  %tobool.not = icmp eq i32 %call7, 0
  br i1 %tobool.not, label %if.then, label %return

if.then:                                          ; preds = %entry
  %cmp8 = icmp ult i64 %2, %3
  br i1 %cmp8, label %if.then9, label %if.else12

if.then9:                                         ; preds = %if.then
  %5 = load i8, ptr %0, align 1
  %cmp10 = icmp eq i8 %5, 0
  %. = select i1 %cmp10, i32 -1, i32 1
  br label %return

if.else12:                                        ; preds = %if.then
  br i1 %cmp.i, label %if.then14, label %if.else20

if.then14:                                        ; preds = %if.else12
  %6 = load i8, ptr %1, align 1
  %cmp17 = icmp eq i8 %6, 0
  %.13 = select i1 %cmp17, i32 1, i32 -1
  br label %return

if.else20:                                        ; preds = %if.else12
  %7 = load i8, ptr %0, align 1
  %8 = load i8, ptr %1, align 1
  %cmp25 = icmp slt i8 %7, %8
  br i1 %cmp25, label %return, label %if.else27

if.else27:                                        ; preds = %if.else20
  %cmp32 = icmp sgt i8 %7, %8
  %.14 = zext i1 %cmp32 to i32
  br label %return

return:                                           ; preds = %entry, %if.else27, %if.else20, %if.then14, %if.then9
  %retval.0 = phi i32 [ %., %if.then9 ], [ %.13, %if.then14 ], [ -1, %if.else20 ], [ %.14, %if.else27 ], [ %call7, %entry ]
  ret i32 %retval.0
}